target datalayout = "e-m:e-p270:32:32-p271:32:32-p272:64:64-i64:64-i128:128-f80:128-n8:16:32:64-S128"
target triple = "x86_64-pc-linux-gnu"

%struct.Abc_Obj_t_ = type { ptr, ptr, i32, i32, %struct.Vec_Int_t_, %struct.Vec_Int_t_, %union.anon, %union.anon.0 }
%struct.Vec_Int_t_ = type { i32, i32, ptr }
%union.anon = type { ptr }
%union.anon.0 = type { ptr }
%struct.Vec_Ptr_t_ = type { i32, i32, ptr }
%struct.MinRegMan_t_ = type { i32, i32, i32, i32, i32, i32, i32, i32, i32, i32, i32, ptr, i32, i32, i32, i32, i32, i32, i32, i32, i32, ptr, ptr, ptr, ptr, ptr, ptr, ptr, ptr, ptr, i32 }

@pManMR = external global ptr, align 8

; Function Attrs: inlinehint nounwind uwtable
define internal void @Vec_PtrFree(ptr noundef %0) #3 {
  %2 = alloca ptr, align 8
  store ptr %0, ptr %2, align 8, !tbaa !46
  %3 = load ptr, ptr %2, align 8, !tbaa !46
  %4 = getelementptr inbounds nuw %struct.Vec_Ptr_t_, ptr %3, i32 0, i32 2
  %5 = load ptr, ptr %4, align 8, !tbaa !32
  %6 = icmp ne ptr %5, null
  br i1 %6, label %7, label %13

7:                                                ; preds = %1
  %8 = load ptr, ptr %2, align 8, !tbaa !46
  %9 = getelementptr inbounds nuw %struct.Vec_Ptr_t_, ptr %8, i32 0, i32 2
  %10 = load ptr, ptr %9, align 8, !tbaa !32
  call void @free(ptr noundef %10) #8
  %11 = load ptr, ptr %2, align 8, !tbaa !46
  %12 = getelementptr inbounds nuw %struct.Vec_Ptr_t_, ptr %11, i32 0, i32 2
  store ptr null, ptr %12, align 8, !tbaa !32
  br label %14

13:                                               ; preds = %1
  br label %14

14:                                               ; preds = %13, %7
  %15 = load ptr, ptr %2, align 8, !tbaa !46
  %16 = icmp ne ptr %15, null
  br i1 %16, label %17, label %19

17:                                               ; preds = %14
  %18 = load ptr, ptr %2, align 8, !tbaa !46
  call void @free(ptr noundef %18) #8
  store ptr null, ptr %2, align 8, !tbaa !46
  br label %20

19:                                               ; preds = %14
  br label %20

20:                                               ; preds = %19, %17
  ret void
}

; Function Attrs: inlinehint nounwind uwtable
define internal ptr @Vec_PtrReleaseArray(ptr noundef %0) #3 {
  %2 = alloca ptr, align 8
  %3 = alloca ptr, align 8
  store ptr %0, ptr %2, align 8, !tbaa !46
  call void @llvm.lifetime.start.p0(i64 8, ptr %3) #8
  %4 = load ptr, ptr %2, align 8, !tbaa !46
  %5 = getelementptr inbounds nuw %struct.Vec_Ptr_t_, ptr %4, i32 0, i32 2
  %6 = load ptr, ptr %5, align 8, !tbaa !32
  store ptr %6, ptr %3, align 8, !tbaa !35
  %7 = load ptr, ptr %2, align 8, !tbaa !46
  %8 = getelementptr inbounds nuw %struct.Vec_Ptr_t_, ptr %7, i32 0, i32 0
  store i32 0, ptr %8, align 8, !tbaa !48
  %9 = load ptr, ptr %2, align 8, !tbaa !46
  %10 = getelementptr inbounds nuw %struct.Vec_Ptr_t_, ptr %9, i32 0, i32 1
  store i32 0, ptr %10, align 4, !tbaa !47
  %11 = load ptr, ptr %2, align 8, !tbaa !46
  %12 = getelementptr inbounds nuw %struct.Vec_Ptr_t_, ptr %11, i32 0, i32 2
  store ptr null, ptr %12, align 8, !tbaa !32
  %13 = load ptr, ptr %3, align 8, !tbaa !35
  call void @llvm.lifetime.end.p0(i64 8, ptr %3) #8
  ret ptr %13
}

; Function Attrs: inlinehint nounwind uwtable
define internal i32 @Abc_ObjId(ptr noundef %0) #3 {
  %2 = alloca ptr, align 8
  store ptr %0, ptr %2, align 8, !tbaa !3
  %3 = load ptr, ptr %2, align 8, !tbaa !3
  %4 = getelementptr inbounds nuw %struct.Abc_Obj_t_, ptr %3, i32 0, i32 2
  %5 = load i32, ptr %4, align 8, !tbaa !52
  ret i32 %5
}

; Function Attrs: inlinehint nounwind uwtable
define internal ptr @Vec_PtrPop(ptr noundef %0) #3 {
  %2 = alloca ptr, align 8
  store ptr %0, ptr %2, align 8, !tbaa !46
  %3 = load ptr, ptr %2, align 8, !tbaa !46
  %4 = getelementptr inbounds nuw %struct.Vec_Ptr_t_, ptr %3, i32 0, i32 2
  %5 = load ptr, ptr %4, align 8, !tbaa !32
  %6 = load ptr, ptr %2, align 8, !tbaa !46
  %7 = getelementptr inbounds nuw %struct.Vec_Ptr_t_, ptr %6, i32 0, i32 1
  %8 = load i32, ptr %7, align 4, !tbaa !47
  %9 = add nsw i32 %8, -1
  store i32 %9, ptr %7, align 4, !tbaa !47
  %10 = sext i32 %9 to i64
  %11 = getelementptr inbounds ptr, ptr %5, i64 %10
  %12 = load ptr, ptr %11, align 8, !tbaa !35
  ret ptr %12
}

; Function Attrs: inlinehint nounwind uwtable
define internal i32 @Vec_PtrSize(ptr noundef %0) #3 {
  %2 = alloca ptr, align 8
  store ptr %0, ptr %2, align 8, !tbaa !46
  %3 = load ptr, ptr %2, align 8, !tbaa !46
  %4 = getelementptr inbounds nuw %struct.Vec_Ptr_t_, ptr %3, i32 0, i32 1
  %5 = load i32, ptr %4, align 4, !tbaa !47
  ret i32 %5
}

; Function Attrs: nounwind uwtable
define void @Abc_FlowRetime_FreeTiming(ptr noundef %0) #0 {
  %2 = alloca ptr, align 8
  %3 = alloca ptr, align 8
  %4 = alloca ptr, align 8
  store ptr %0, ptr %2, align 8, !tbaa !36
  call void @llvm.lifetime.start.p0(i64 8, ptr %3) #8
  call void @llvm.lifetime.start.p0(i64 8, ptr %4) #8
  br label %5

5:                                                ; preds = %40, %1
  %6 = load ptr, ptr @pManMR, align 8, !tbaa !37
  %7 = getelementptr inbounds nuw %struct.MinRegMan_t_, ptr %6, i32 0, i32 25
  %8 = load ptr, ptr %7, align 8, !tbaa !44
  %9 = call i32 @Vec_PtrSize(ptr noundef %8)
  %10 = icmp ne i32 %9, 0
  br i1 %10, label %11, label %41

11:                                               ; preds = %5
  %12 = load ptr, ptr @pManMR, align 8, !tbaa !37
  %13 = getelementptr inbounds nuw %struct.MinRegMan_t_, ptr %12, i32 0, i32 25
  %14 = load ptr, ptr %13, align 8, !tbaa !44
  %15 = call ptr @Vec_PtrPop(ptr noundef %14)
  store ptr %15, ptr %3, align 8, !tbaa !3
  %16 = load ptr, ptr @pManMR, align 8, !tbaa !37
  %17 = getelementptr inbounds nuw %struct.MinRegMan_t_, ptr %16, i32 0, i32 24
  %18 = load ptr, ptr %17, align 8, !tbaa !45
  %19 = load ptr, ptr %3, align 8, !tbaa !3
  %20 = call i32 @Abc_ObjId(ptr noundef %19)
  %21 = zext i32 %20 to i64
  %22 = getelementptr inbounds nuw %struct.Vec_Ptr_t_, ptr %18, i64 %21
  %23 = call i32 @Vec_PtrSize(ptr noundef %22)
  %24 = icmp ne i32 %23, 0
  br i1 %24, label %25, label %40

25:                                               ; preds = %11
  %26 = load ptr, ptr @pManMR, align 8, !tbaa !37
  %27 = getelementptr inbounds nuw %struct.MinRegMan_t_, ptr %26, i32 0, i32 24
  %28 = load ptr, ptr %27, align 8, !tbaa !45
  %29 = load ptr, ptr %3, align 8, !tbaa !3
  %30 = call i32 @Abc_ObjId(ptr noundef %29)
  %31 = zext i32 %30 to i64
  %32 = getelementptr inbounds nuw %struct.Vec_Ptr_t_, ptr %28, i64 %31
  %33 = call ptr @Vec_PtrReleaseArray(ptr noundef %32)
  store ptr %33, ptr %4, align 8, !tbaa !35
  %34 = load ptr, ptr %4, align 8, !tbaa !35
  %35 = icmp ne ptr %34, null
  br i1 %35, label %36, label %38

36:                                               ; preds = %25
  %37 = load ptr, ptr %4, align 8, !tbaa !35
  call void @free(ptr noundef %37) #8
  store ptr null, ptr %4, align 8, !tbaa !35
  br label %39

38:                                               ; preds = %25
  br label %39

39:                                               ; preds = %38, %36
  br label %40

40:                                               ; preds = %39, %11
  br label %5, !llvm.loop !101

41:                                               ; preds = %5
  %42 = load ptr, ptr @pManMR, align 8, !tbaa !37
  %43 = getelementptr inbounds nuw %struct.MinRegMan_t_, ptr %42, i32 0, i32 25
  %44 = load ptr, ptr %43, align 8, !tbaa !44
  call void @Vec_PtrFree(ptr noundef %44)
  %45 = load ptr, ptr @pManMR, align 8, !tbaa !37
  %46 = getelementptr inbounds nuw %struct.MinRegMan_t_, ptr %45, i32 0, i32 24
  %47 = load ptr, ptr %46, align 8, !tbaa !45
  %48 = icmp ne ptr %47, null
  br i1 %48, label %49, label %55

49:                                               ; preds = %41
  %50 = load ptr, ptr @pManMR, align 8, !tbaa !37
  %51 = getelementptr inbounds nuw %struct.MinRegMan_t_, ptr %50, i32 0, i32 24
  %52 = load ptr, ptr %51, align 8, !tbaa !45
  call void @free(ptr noundef %52) #8
  %53 = load ptr, ptr @pManMR, align 8, !tbaa !37
  %54 = getelementptr inbounds nuw %struct.MinRegMan_t_, ptr %53, i32 0, i32 24
  store ptr null, ptr %54, align 8, !tbaa !45
  br label %56

55:                                               ; preds = %41
  br label %56

56:                                               ; preds = %55, %49
  call void @llvm.lifetime.end.p0(i64 8, ptr %4) #8
  call void @llvm.lifetime.end.p0(i64 8, ptr %3) #8
  ret void
}