; Function Attrs: nounwind uwtable
define void @Abc_FlowRetime_FreeTiming(ptr noundef readnone captures(none) %0) local_unnamed_addr #0 {
  %2 = load ptr, ptr @pManMR, align 8, !tbaa !35
  %3 = getelementptr inbounds nuw i8, ptr %2, i64 128
  %4 = load ptr, ptr %3, align 8, !tbaa !44
  %5 = getelementptr i8, ptr %4, i64 4
  %.val811 = load i32, ptr %5, align 4, !tbaa !42
  %.not12 = icmp eq i32 %.val811, 0
  br i1 %.not12, label %._crit_edge, label %.lr.ph

.lr.ph:                                           ; preds = %1, %25
  %.val813 = phi i32 [ %.val8, %25 ], [ %.val811, %1 ]
  %6 = phi ptr [ %29, %25 ], [ %5, %1 ]
  %7 = phi ptr [ %28, %25 ], [ %4, %1 ]
  %8 = phi ptr [ %26, %25 ], [ %2, %1 ]
  %9 = getelementptr inbounds nuw i8, ptr %7, i64 8
  %10 = load ptr, ptr %9, align 8, !tbaa !29
  %11 = add nsw i32 %.val813, -1
  store i32 %11, ptr %6, align 4, !tbaa !42
  %12 = sext i32 %11 to i64
  %13 = getelementptr inbounds ptr, ptr %10, i64 %12
  %14 = load ptr, ptr %13, align 8, !tbaa !34
  %15 = getelementptr inbounds nuw i8, ptr %8, i64 120
  %16 = load ptr, ptr %15, align 8, !tbaa !45
  %17 = getelementptr i8, ptr %14, i64 16
  %.val10 = load i32, ptr %17, align 8, !tbaa !46
  %18 = zext i32 %.val10 to i64
  %19 = getelementptr inbounds nuw %struct.Vec_Ptr_t_, ptr %16, i64 %18
  %20 = getelementptr i8, ptr %19, i64 4
  %.val = load i32, ptr %20, align 4, !tbaa !42
  %.not6 = icmp eq i32 %.val, 0
  br i1 %.not6, label %25, label %21

21:                                               ; preds = %.lr.ph
  %22 = getelementptr inbounds nuw i8, ptr %19, i64 8
  %23 = load ptr, ptr %22, align 8, !tbaa !29
  tail call void @llvm.memset.p0.i64(ptr noundef nonnull align 8 dereferenceable(16) %19, i8 0, i64 16, i1 false)
  %.not7 = icmp eq ptr %23, null
  br i1 %.not7, label %25, label %24

24:                                               ; preds = %21
  tail call void @free(ptr noundef nonnull %23) #11
  br label %25

25:                                               ; preds = %24, %21, %.lr.ph
  %26 = load ptr, ptr @pManMR, align 8, !tbaa !35
  %27 = getelementptr inbounds nuw i8, ptr %26, i64 128
  %28 = load ptr, ptr %27, align 8, !tbaa !44
  %29 = getelementptr i8, ptr %28, i64 4
  %.val8 = load i32, ptr %29, align 4, !tbaa !42
  %.not = icmp eq i32 %.val8, 0
  br i1 %.not, label %._crit_edge, label %.lr.ph, !llvm.loop !104

._crit_edge:                                      ; preds = %25, %1
  %.lcssa = phi ptr [ %4, %1 ], [ %28, %25 ]
  %30 = getelementptr inbounds nuw i8, ptr %.lcssa, i64 8
  %31 = load ptr, ptr %30, align 8, !tbaa !29
  %.not.i = icmp eq ptr %31, null
  br i1 %.not.i, label %Vec_PtrFree.exit, label %32

32:                                               ; preds = %._crit_edge
  tail call void @free(ptr noundef nonnull %31) #11
  br label %Vec_PtrFree.exit

Vec_PtrFree.exit:                                 ; preds = %._crit_edge, %32
  tail call void @free(ptr noundef nonnull %.lcssa) #11
  %33 = load ptr, ptr @pManMR, align 8, !tbaa !35
  %34 = getelementptr inbounds nuw i8, ptr %33, i64 120
  %35 = load ptr, ptr %34, align 8, !tbaa !45
  %.not5 = icmp eq ptr %35, null
  br i1 %.not5, label %39, label %36

36:                                               ; preds = %Vec_PtrFree.exit
  tail call void @free(ptr noundef nonnull %35) #11
  %37 = load ptr, ptr @pManMR, align 8, !tbaa !35
  %38 = getelementptr inbounds nuw i8, ptr %37, i64 120
  store ptr null, ptr %38, align 8, !tbaa !45
  br label %39

39:                                               ; preds = %Vec_PtrFree.exit, %36
  ret void
}